; Function Attrs: mustprogress uwtable
define hidden noundef i32 @_ZN11bv_rewriter18mk_bvsmul_overflowEjPKP4exprR7obj_refIS0_11ast_managerE(ptr noundef nonnull readonly align 8 captures(none) dereferenceable(157) %0, i32 %1, ptr noundef readonly captures(none) %2, ptr noundef nonnull align 8 captures(none) dereferenceable(16) %3) local_unnamed_addr #3 align 2 {
  %5 = load ptr, ptr %0, align 8, !tbaa !76
  %6 = getelementptr inbounds nuw i8, ptr %0, i64 8
  %7 = load ptr, ptr %2, align 8, !tbaa !67
  %8 = getelementptr inbounds nuw i8, ptr %2, i64 8
  %9 = load ptr, ptr %8, align 8, !tbaa !67
  %10 = getelementptr inbounds nuw i8, ptr %0, i64 16
  %11 = load ptr, ptr %10, align 8, !tbaa !74
  %12 = load i32, ptr %6, align 8, !tbaa !75
  %13 = tail call noundef ptr @_ZN11ast_manager6mk_appEiiP4exprS1_(ptr noundef nonnull align 8 dereferenceable(976) %11, i32 noundef %12, i32 noundef 53, ptr noundef %7, ptr noundef %9)
  %14 = tail call noundef ptr @_ZN11ast_manager6mk_appEiiP4expr(ptr noundef nonnull align 8 dereferenceable(976) %5, i32 noundef 0, i32 noundef 8, ptr noundef %13)
  %15 = load ptr, ptr %0, align 8, !tbaa !76
  %16 = load ptr, ptr %2, align 8, !tbaa !67
  %17 = load ptr, ptr %8, align 8, !tbaa !67
  %18 = load ptr, ptr %10, align 8, !tbaa !74
  %19 = load i32, ptr %6, align 8, !tbaa !75
  %20 = tail call noundef ptr @_ZN11ast_manager6mk_appEiiP4exprS1_(ptr noundef nonnull align 8 dereferenceable(976) %18, i32 noundef %19, i32 noundef 54, ptr noundef %16, ptr noundef %17)
  %21 = tail call noundef ptr @_ZN11ast_manager6mk_appEiiP4expr(ptr noundef nonnull align 8 dereferenceable(976) %15, i32 noundef 0, i32 noundef 8, ptr noundef %20)
  %22 = tail call noundef ptr @_ZN11ast_manager6mk_appEiiP4exprS1_(ptr noundef nonnull align 8 dereferenceable(976) %5, i32 noundef 0, i32 noundef 6, ptr noundef %14, ptr noundef %21)
  %.not.i = icmp eq ptr %22, null
  br i1 %.not.i, label %26, label %_ZN11ast_manager7inc_refEP3ast.exit.i

_ZN11ast_manager7inc_refEP3ast.exit.i:            ; preds = %4
  %23 = getelementptr inbounds nuw i8, ptr %22, i64 8
  %24 = load i32, ptr %23, align 4, !tbaa !71
  %25 = add i32 %24, 1
  store i32 %25, ptr %23, align 4, !tbaa !71
  br label %26

26:                                               ; preds = %_ZN11ast_manager7inc_refEP3ast.exit.i, %4
  %27 = load ptr, ptr %3, align 8, !tbaa !72
  %.not.i4.i = icmp eq ptr %27, null
  br i1 %.not.i4.i, label %_ZN7obj_refI4expr11ast_managerEaSEPS0_.exit, label %28

28:                                               ; preds = %26
  %29 = getelementptr inbounds nuw i8, ptr %3, i64 8
  %30 = load ptr, ptr %29, align 8, !tbaa !73
  %31 = getelementptr inbounds nuw i8, ptr %27, i64 8
  %32 = load i32, ptr %31, align 4, !tbaa !71
  %33 = add i32 %32, -1
  store i32 %33, ptr %31, align 4, !tbaa !71
  %34 = icmp eq i32 %33, 0
  br i1 %34, label %35, label %_ZN7obj_refI4expr11ast_managerEaSEPS0_.exit

35:                                               ; preds = %28
  tail call void @_ZN11ast_manager11delete_nodeEP3ast(ptr noundef nonnull align 8 dereferenceable(976) %30, ptr noundef nonnull %27)
  br label %_ZN7obj_refI4expr11ast_managerEaSEPS0_.exit

_ZN7obj_refI4expr11ast_managerEaSEPS0_.exit:      ; preds = %26, %28, %35
  store ptr %22, ptr %3, align 8, !tbaa !72
  ret i32 3
}